; Function Attrs: mustprogress uwtable
define noundef i64 @_ZN6google8protobuf8internal24ComputeUnknownFieldsSizeERKNS1_16InternalMetadataEmPNS1_10CachedSizeE(ptr noundef nonnull readonly align 8 captures(none) dereferenceable(8) %metadata, i64 noundef %total_size, ptr noundef writeonly captures(none) %cached_size) local_unnamed_addr #3 {
entry:
  %0 = load i64, ptr %metadata, align 8
  %and.i = and i64 %0, 1
  %tobool.i.not = icmp eq i64 %and.i, 0
  br i1 %tobool.i.not, label %if.else.i, label %if.then.i

if.then.i:                                        ; preds = %entry
  %and.i3 = and i64 %0, -2
  %1 = inttoptr i64 %and.i3 to ptr
  %unknown_fields.i = getelementptr inbounds nuw i8, ptr %1, i64 8
  br label %_ZNK6google8protobuf8internal16InternalMetadata14unknown_fieldsINS0_15UnknownFieldSetEEERKT_PFS7_vE.exit

if.else.i:                                        ; preds = %entry
  %call3.i = tail call noundef nonnull align 8 dereferenceable(24) ptr @_ZN6google8protobuf15UnknownFieldSet16default_instanceEv()
  br label %_ZNK6google8protobuf8internal16InternalMetadata14unknown_fieldsINS0_15UnknownFieldSetEEERKT_PFS7_vE.exit

_ZNK6google8protobuf8internal16InternalMetadata14unknown_fieldsINS0_15UnknownFieldSetEEERKT_PFS7_vE.exit: ; preds = %if.else.i, %if.then.i
  %retval.i.0 = phi ptr [ %unknown_fields.i, %if.then.i ], [ %call3.i, %if.else.i ]
  %call1 = tail call noundef i64 @_ZN6google8protobuf8internal10WireFormat24ComputeUnknownFieldsSizeERKNS0_15UnknownFieldSetE(ptr noundef nonnull align 8 dereferenceable(24) %retval.i.0)
  %add = add i64 %call1, %total_size
  %conv.i = trunc i64 %add to i32
  store atomic i32 %conv.i, ptr %cached_size monotonic, align 4
  ret i64 %add
}